target datalayout = "e-m:e-p270:32:32-p271:32:32-p272:64:64-i64:64-i128:128-f80:128-n8:16:32:64-S128"
target triple = "x86_64-pc-linux-gnu"

%"class.google::protobuf::internal::LogMessage" = type { i32, ptr, i32, %"class.std::__cxx11::basic_string" }
%"class.std::__cxx11::basic_string" = type { %"struct.std::__cxx11::basic_string<char>::_Alloc_hider", i64, %union.anon }
%"struct.std::__cxx11::basic_string<char>::_Alloc_hider" = type { ptr }
%union.anon = type { i64, [8 x i8] }
%"class.google::protobuf::internal::LogFinisher" = type { i8 }
%"class.google::protobuf::io::ZeroCopyOutputStream" = type { ptr }
%"class.std::unique_ptr" = type { %"struct.std::__uniq_ptr_data" }
%"struct.std::__uniq_ptr_data" = type { %"class.std::__uniq_ptr_impl" }
%"class.std::__uniq_ptr_impl" = type { %"class.std::tuple" }
%"class.std::tuple" = type { %"struct.std::_Tuple_impl" }
%"struct.std::_Tuple_impl" = type { %"struct.std::_Head_base.1" }
%"struct.std::_Head_base.1" = type { ptr }
%"class.google::protobuf::io::CopyingOutputStreamAdaptor" = type { %"class.google::protobuf::io::ZeroCopyOutputStream", ptr, i8, i8, i64, %"class.std::unique_ptr", i32, i32 }

@.str = private unnamed_addr constant [56 x i8] c"third_party/protobuf-lite/zero_copy_stream_impl_lite.cc\00", align 1
@.str.4 = private unnamed_addr constant [31 x i8] c"CHECK failed: (count) >= (0): \00", align 1
@.str.8 = private unnamed_addr constant [43 x i8] c" BackUp() can only be called after Next().\00", align 1
@.str.9 = private unnamed_addr constant [42 x i8] c"CHECK failed: (count) <= (buffer_used_): \00", align 1
@.str.10 = private unnamed_addr constant [78 x i8] c" Can't back up over more bytes than were returned by the last call to Next().\00", align 1
@.str.13 = private unnamed_addr constant [49 x i8] c"CHECK failed: (buffer_used_) == (buffer_size_): \00", align 1

; Function Attrs: mustprogress uwtable
define void @_ZN6google8protobuf2io26CopyingOutputStreamAdaptor6BackUpEi(ptr noundef nonnull align 8 dereferenceable(48) %0, i32 noundef %1) unnamed_addr #4 align 2 personality ptr @__gxx_personality_v0 {
  %3 = alloca ptr, align 8
  %4 = alloca i32, align 4
  %5 = alloca %"class.google::protobuf::internal::LogMessage", align 8
  %6 = alloca i1, align 1
  %7 = alloca ptr, align 8
  %8 = alloca i32, align 4
  %9 = alloca %"class.google::protobuf::internal::LogFinisher", align 1
  %10 = alloca %"class.google::protobuf::internal::LogMessage", align 8
  %11 = alloca i1, align 1
  %12 = alloca %"class.google::protobuf::internal::LogFinisher", align 1
  %13 = alloca %"class.google::protobuf::internal::LogMessage", align 8
  %14 = alloca i1, align 1
  %15 = alloca %"class.google::protobuf::internal::LogFinisher", align 1
  store ptr %0, ptr %3, align 8
  store i32 %1, ptr %4, align 4
  %16 = load ptr, ptr %3, align 8
  %17 = load i32, ptr %4, align 4
  %18 = icmp sge i32 %17, 0
  store i1 false, ptr %6, align 1
  br i1 %18, label %19, label %20

19:                                               ; preds = %2
  br label %24

20:                                               ; preds = %2
  call void @_ZN6google8protobuf8internal10LogMessageC1ENS0_8LogLevelEPKci(ptr noundef nonnull align 8 dereferenceable(56) %5, i32 noundef 3, ptr noundef @.str, i32 noundef 331)
  store i1 true, ptr %6, align 1
  %21 = invoke noundef nonnull align 8 dereferenceable(56) ptr @_ZN6google8protobuf8internal10LogMessagelsEPKc(ptr noundef nonnull align 8 dereferenceable(56) %5, ptr noundef @.str.4)
          to label %22 unwind label %63

22:                                               ; preds = %20
  invoke void @_ZN6google8protobuf8internal11LogFinisheraSERNS1_10LogMessageE(ptr noundef nonnull align 1 dereferenceable(1) %9, ptr noundef nonnull align 8 dereferenceable(56) %21)
          to label %23 unwind label %63

23:                                               ; preds = %22
  br label %24

24:                                               ; preds = %23, %19
  %25 = load i1, ptr %6, align 1
  br i1 %25, label %26, label %27

26:                                               ; preds = %24
  call void @_ZN6google8protobuf8internal10LogMessageD1Ev(ptr noundef nonnull align 8 dereferenceable(56) %5) #3
  br label %27

27:                                               ; preds = %26, %24
  %28 = getelementptr inbounds %"class.google::protobuf::io::CopyingOutputStreamAdaptor", ptr %16, i32 0, i32 7
  %29 = load i32, ptr %28, align 4
  %30 = getelementptr inbounds %"class.google::protobuf::io::CopyingOutputStreamAdaptor", ptr %16, i32 0, i32 6
  %31 = load i32, ptr %30, align 8
  %32 = icmp eq i32 %29, %31
  store i1 false, ptr %11, align 1
  br i1 %32, label %33, label %34

33:                                               ; preds = %27
  br label %40

34:                                               ; preds = %27
  call void @_ZN6google8protobuf8internal10LogMessageC1ENS0_8LogLevelEPKci(ptr noundef nonnull align 8 dereferenceable(56) %10, i32 noundef 3, ptr noundef @.str, i32 noundef 332)
  store i1 true, ptr %11, align 1
  %35 = invoke noundef nonnull align 8 dereferenceable(56) ptr @_ZN6google8protobuf8internal10LogMessagelsEPKc(ptr noundef nonnull align 8 dereferenceable(56) %10, ptr noundef @.str.13)
          to label %36 unwind label %70

36:                                               ; preds = %34
  %37 = invoke noundef nonnull align 8 dereferenceable(56) ptr @_ZN6google8protobuf8internal10LogMessagelsEPKc(ptr noundef nonnull align 8 dereferenceable(56) %35, ptr noundef @.str.8)
          to label %38 unwind label %70

38:                                               ; preds = %36
  invoke void @_ZN6google8protobuf8internal11LogFinisheraSERNS1_10LogMessageE(ptr noundef nonnull align 1 dereferenceable(1) %12, ptr noundef nonnull align 8 dereferenceable(56) %37)
          to label %39 unwind label %70

39:                                               ; preds = %38
  br label %40

40:                                               ; preds = %39, %33
  %41 = load i1, ptr %11, align 1
  br i1 %41, label %42, label %43

42:                                               ; preds = %40
  call void @_ZN6google8protobuf8internal10LogMessageD1Ev(ptr noundef nonnull align 8 dereferenceable(56) %10) #3
  br label %43

43:                                               ; preds = %42, %40
  %44 = load i32, ptr %4, align 4
  %45 = getelementptr inbounds %"class.google::protobuf::io::CopyingOutputStreamAdaptor", ptr %16, i32 0, i32 7
  %46 = load i32, ptr %45, align 4
  %47 = icmp sle i32 %44, %46
  store i1 false, ptr %14, align 1
  br i1 %47, label %48, label %49

48:                                               ; preds = %43
  br label %55

49:                                               ; preds = %43
  call void @_ZN6google8protobuf8internal10LogMessageC1ENS0_8LogLevelEPKci(ptr noundef nonnull align 8 dereferenceable(56) %13, i32 noundef 3, ptr noundef @.str, i32 noundef 334)
  store i1 true, ptr %14, align 1
  %50 = invoke noundef nonnull align 8 dereferenceable(56) ptr @_ZN6google8protobuf8internal10LogMessagelsEPKc(ptr noundef nonnull align 8 dereferenceable(56) %13, ptr noundef @.str.9)
          to label %51 unwind label %77

51:                                               ; preds = %49
  %52 = invoke noundef nonnull align 8 dereferenceable(56) ptr @_ZN6google8protobuf8internal10LogMessagelsEPKc(ptr noundef nonnull align 8 dereferenceable(56) %50, ptr noundef @.str.10)
          to label %53 unwind label %77

53:                                               ; preds = %51
  invoke void @_ZN6google8protobuf8internal11LogFinisheraSERNS1_10LogMessageE(ptr noundef nonnull align 1 dereferenceable(1) %15, ptr noundef nonnull align 8 dereferenceable(56) %52)
          to label %54 unwind label %77

54:                                               ; preds = %53
  br label %55

55:                                               ; preds = %54, %48
  %56 = load i1, ptr %14, align 1
  br i1 %56, label %57, label %58

57:                                               ; preds = %55
  call void @_ZN6google8protobuf8internal10LogMessageD1Ev(ptr noundef nonnull align 8 dereferenceable(56) %13) #3
  br label %58

58:                                               ; preds = %57, %55
  %59 = load i32, ptr %4, align 4
  %60 = getelementptr inbounds %"class.google::protobuf::io::CopyingOutputStreamAdaptor", ptr %16, i32 0, i32 7
  %61 = load i32, ptr %60, align 4
  %62 = sub nsw i32 %61, %59
  store i32 %62, ptr %60, align 4
  ret void

63:                                               ; preds = %22, %20
  %64 = landingpad { ptr, i32 }
          cleanup
  %65 = extractvalue { ptr, i32 } %64, 0
  store ptr %65, ptr %7, align 8
  %66 = extractvalue { ptr, i32 } %64, 1
  store i32 %66, ptr %8, align 4
  %67 = load i1, ptr %6, align 1
  br i1 %67, label %68, label %69

68:                                               ; preds = %63
  call void @_ZN6google8protobuf8internal10LogMessageD1Ev(ptr noundef nonnull align 8 dereferenceable(56) %5) #3
  br label %69

69:                                               ; preds = %68, %63
  br label %84

70:                                               ; preds = %38, %36, %34
  %71 = landingpad { ptr, i32 }
          cleanup
  %72 = extractvalue { ptr, i32 } %71, 0
  store ptr %72, ptr %7, align 8
  %73 = extractvalue { ptr, i32 } %71, 1
  store i32 %73, ptr %8, align 4
  %74 = load i1, ptr %11, align 1
  br i1 %74, label %75, label %76

75:                                               ; preds = %70
  call void @_ZN6google8protobuf8internal10LogMessageD1Ev(ptr noundef nonnull align 8 dereferenceable(56) %10) #3
  br label %76

76:                                               ; preds = %75, %70
  br label %84

77:                                               ; preds = %53, %51, %49
  %78 = landingpad { ptr, i32 }
          cleanup
  %79 = extractvalue { ptr, i32 } %78, 0
  store ptr %79, ptr %7, align 8
  %80 = extractvalue { ptr, i32 } %78, 1
  store i32 %80, ptr %8, align 4
  %81 = load i1, ptr %14, align 1
  br i1 %81, label %82, label %83

82:                                               ; preds = %77
  call void @_ZN6google8protobuf8internal10LogMessageD1Ev(ptr noundef nonnull align 8 dereferenceable(56) %13) #3
  br label %83

83:                                               ; preds = %82, %77
  br label %84

84:                                               ; preds = %83, %76, %69
  %85 = load ptr, ptr %7, align 8
  %86 = load i32, ptr %8, align 4
  %87 = insertvalue { ptr, i32 } poison, ptr %85, 0
  %88 = insertvalue { ptr, i32 } %87, i32 %86, 1
  resume { ptr, i32 } %88
}