; Function Attrs: mustprogress uwtable
define void @_ZN6google8protobuf2io26CopyingOutputStreamAdaptor6BackUpEi(ptr nocapture noundef nonnull align 8 dereferenceable(48) %0, i32 noundef %1) unnamed_addr #5 align 2 personality ptr @__gxx_personality_v0 {
  %3 = alloca %"class.google::protobuf::internal::LogMessage", align 8
  %4 = alloca %"class.google::protobuf::internal::LogFinisher", align 1
  %5 = alloca %"class.google::protobuf::internal::LogMessage", align 8
  %6 = alloca %"class.google::protobuf::internal::LogFinisher", align 1
  %7 = alloca %"class.google::protobuf::internal::LogMessage", align 8
  %8 = alloca %"class.google::protobuf::internal::LogFinisher", align 1
  %9 = icmp slt i32 %1, 0
  br i1 %9, label %10, label %.critedge

10:                                               ; preds = %2
  call void @_ZN6google8protobuf8internal10LogMessageC1ENS0_8LogLevelEPKci(ptr noundef nonnull align 8 dereferenceable(56) %3, i32 noundef 3, ptr noundef nonnull @.str, i32 noundef 331)
  %11 = invoke noundef nonnull align 8 dereferenceable(56) ptr @_ZN6google8protobuf8internal10LogMessagelsEPKc(ptr noundef nonnull align 8 dereferenceable(56) %3, ptr noundef nonnull @.str.4)
          to label %12 unwind label %33

12:                                               ; preds = %10
  invoke void @_ZN6google8protobuf8internal11LogFinisheraSERNS1_10LogMessageE(ptr noundef nonnull align 1 dereferenceable(1) %4, ptr noundef nonnull align 8 dereferenceable(56) %11)
          to label %13 unwind label %33

13:                                               ; preds = %12
  call void @_ZN6google8protobuf8internal10LogMessageD1Ev(ptr noundef nonnull align 8 dereferenceable(56) %3) #16
  br label %.critedge

.critedge:                                        ; preds = %2, %13
  %14 = getelementptr inbounds i8, ptr %0, i64 44
  %15 = load i32, ptr %14, align 4
  %16 = getelementptr inbounds i8, ptr %0, i64 40
  %17 = load i32, ptr %16, align 8
  %.not = icmp eq i32 %15, %17
  br i1 %.not, label %.critedge18, label %18

18:                                               ; preds = %.critedge
  call void @_ZN6google8protobuf8internal10LogMessageC1ENS0_8LogLevelEPKci(ptr noundef nonnull align 8 dereferenceable(56) %5, i32 noundef 3, ptr noundef nonnull @.str, i32 noundef 332)
  %19 = invoke noundef nonnull align 8 dereferenceable(56) ptr @_ZN6google8protobuf8internal10LogMessagelsEPKc(ptr noundef nonnull align 8 dereferenceable(56) %5, ptr noundef nonnull @.str.13)
          to label %20 unwind label %35

20:                                               ; preds = %18
  %21 = invoke noundef nonnull align 8 dereferenceable(56) ptr @_ZN6google8protobuf8internal10LogMessagelsEPKc(ptr noundef nonnull align 8 dereferenceable(56) %19, ptr noundef nonnull @.str.8)
          to label %22 unwind label %35

22:                                               ; preds = %20
  invoke void @_ZN6google8protobuf8internal11LogFinisheraSERNS1_10LogMessageE(ptr noundef nonnull align 1 dereferenceable(1) %6, ptr noundef nonnull align 8 dereferenceable(56) %21)
          to label %23 unwind label %35

23:                                               ; preds = %22
  call void @_ZN6google8protobuf8internal10LogMessageD1Ev(ptr noundef nonnull align 8 dereferenceable(56) %5) #16
  %.pre = load i32, ptr %14, align 4
  br label %.critedge18

.critedge18:                                      ; preds = %.critedge, %23
  %24 = phi i32 [ %15, %.critedge ], [ %.pre, %23 ]
  %.not15 = icmp slt i32 %24, %1
  br i1 %.not15, label %25, label %.critedge20

25:                                               ; preds = %.critedge18
  call void @_ZN6google8protobuf8internal10LogMessageC1ENS0_8LogLevelEPKci(ptr noundef nonnull align 8 dereferenceable(56) %7, i32 noundef 3, ptr noundef nonnull @.str, i32 noundef 334)
  %26 = invoke noundef nonnull align 8 dereferenceable(56) ptr @_ZN6google8protobuf8internal10LogMessagelsEPKc(ptr noundef nonnull align 8 dereferenceable(56) %7, ptr noundef nonnull @.str.9)
          to label %27 unwind label %37

27:                                               ; preds = %25
  %28 = invoke noundef nonnull align 8 dereferenceable(56) ptr @_ZN6google8protobuf8internal10LogMessagelsEPKc(ptr noundef nonnull align 8 dereferenceable(56) %26, ptr noundef nonnull @.str.10)
          to label %29 unwind label %37

29:                                               ; preds = %27
  invoke void @_ZN6google8protobuf8internal11LogFinisheraSERNS1_10LogMessageE(ptr noundef nonnull align 1 dereferenceable(1) %8, ptr noundef nonnull align 8 dereferenceable(56) %28)
          to label %30 unwind label %37

30:                                               ; preds = %29
  call void @_ZN6google8protobuf8internal10LogMessageD1Ev(ptr noundef nonnull align 8 dereferenceable(56) %7) #16
  %.pre21 = load i32, ptr %14, align 4
  br label %.critedge20

.critedge20:                                      ; preds = %.critedge18, %30
  %31 = phi i32 [ %24, %.critedge18 ], [ %.pre21, %30 ]
  %32 = sub nsw i32 %31, %1
  store i32 %32, ptr %14, align 4
  ret void

33:                                               ; preds = %12, %10
  %34 = landingpad { ptr, i32 }
          cleanup
  br label %39

35:                                               ; preds = %22, %20, %18
  %36 = landingpad { ptr, i32 }
          cleanup
  br label %39

37:                                               ; preds = %29, %27, %25
  %38 = landingpad { ptr, i32 }
          cleanup
  br label %39

39:                                               ; preds = %37, %35, %33
  %.sink = phi ptr [ %7, %37 ], [ %5, %35 ], [ %3, %33 ]
  %.pn = phi { ptr, i32 } [ %38, %37 ], [ %36, %35 ], [ %34, %33 ]
  call void @_ZN6google8protobuf8internal10LogMessageD1Ev(ptr noundef nonnull align 8 dereferenceable(56) %.sink) #16
  resume { ptr, i32 } %.pn
}